target datalayout = "e-m:e-p270:32:32-p271:32:32-p272:64:64-i64:64-i128:128-f80:128-n8:16:32:64-S128"
target triple = "x86_64-pc-linux-gnu"

%struct.DdManager = type { %struct.DdNode, ptr, ptr, ptr, ptr, ptr, ptr, ptr, i32, i32, double, double, double, i32, i32, i32, i32, i32, i32, ptr, ptr, %struct.DdSubtable, i32, i32, i32, i32, i32, i32, i32, double, i32, i32, i32, ptr, i64, double, i32, ptr, ptr, ptr, ptr, ptr, ptr, ptr, i32, ptr, ptr, ptr, ptr, ptr, ptr, i32, i32, i32, double, i32, i32, i32, i32, double, double, i32, i32, i32, i32, i32, i32, i32, i32, i32, ptr, ptr, i32, i32, i32, i32, i32, i32, ptr, ptr, ptr, ptr, ptr, ptr, ptr, ptr, i32, i64, i64, i64, i32, i64, i64, double, double, double, double, double, double, i32, ptr, ptr, i64 }
%struct.DdNode = type { i32, i32, ptr, %union.anon, i64 }
%union.anon = type { %struct.DdChildren }
%struct.DdChildren = type { ptr, ptr }
%struct.DdSubtable = type { ptr, i32, i32, i32, i32, i32, i32, i32, i32, i32, i32, i32 }
%struct.ApproxInfo = type { ptr, ptr, ptr, ptr, i32, double, i32, double }
%struct.NodeData = type { double, double, i32, i8, i8, i16, ptr, ptr }
%struct.DdLevelQueue = type { ptr, ptr, ptr, ptr, i32, i32, i32, i32, i32, i32 }
%struct.LocalQueueItem = type { ptr, ptr, ptr, i32 }

; Function Attrs: nounwind uwtable
define internal i32 @updateRefs(ptr noundef %0, ptr noundef %1, ptr noundef %2, ptr noundef %3, ptr noundef %4) #0 {
  %6 = alloca i32, align 4
  %7 = alloca ptr, align 8
  %8 = alloca ptr, align 8
  %9 = alloca ptr, align 8
  %10 = alloca ptr, align 8
  %11 = alloca ptr, align 8
  %12 = alloca ptr, align 8
  %13 = alloca ptr, align 8
  %14 = alloca ptr, align 8
  %15 = alloca i32, align 4
  %16 = alloca i32, align 4
  store ptr %0, ptr %7, align 8, !tbaa !3
  store ptr %1, ptr %8, align 8, !tbaa !8
  store ptr %2, ptr %9, align 8, !tbaa !8
  store ptr %3, ptr %10, align 8, !tbaa !33
  store ptr %4, ptr %11, align 8, !tbaa !62
  call void @llvm.lifetime.start.p0(i64 8, ptr %12) #7
  call void @llvm.lifetime.start.p0(i64 8, ptr %13) #7
  call void @llvm.lifetime.start.p0(i64 8, ptr %14) #7
  call void @llvm.lifetime.start.p0(i64 4, ptr %15) #7
  store i32 0, ptr %15, align 4, !tbaa !10
  %17 = load ptr, ptr %8, align 8, !tbaa !8
  %18 = ptrtoint ptr %17 to i64
  %19 = and i64 %18, -2
  %20 = inttoptr i64 %19 to ptr
  store ptr %20, ptr %14, align 8, !tbaa !8
  %21 = load ptr, ptr %11, align 8, !tbaa !62
  %22 = load ptr, ptr %14, align 8, !tbaa !8
  %23 = load ptr, ptr %14, align 8, !tbaa !8
  %24 = getelementptr inbounds nuw %struct.DdNode, ptr %23, i32 0, i32 0
  %25 = load i32, ptr %24, align 8, !tbaa !32
  %26 = icmp eq i32 %25, 2147483647
  br i1 %26, label %27, label %31

27:                                               ; preds = %5
  %28 = load ptr, ptr %14, align 8, !tbaa !8
  %29 = getelementptr inbounds nuw %struct.DdNode, ptr %28, i32 0, i32 0
  %30 = load i32, ptr %29, align 8, !tbaa !32
  br label %41

31:                                               ; preds = %5
  %32 = load ptr, ptr %7, align 8, !tbaa !3
  %33 = getelementptr inbounds nuw %struct.DdManager, ptr %32, i32 0, i32 37
  %34 = load ptr, ptr %33, align 8, !tbaa !65
  %35 = load ptr, ptr %14, align 8, !tbaa !8
  %36 = getelementptr inbounds nuw %struct.DdNode, ptr %35, i32 0, i32 0
  %37 = load i32, ptr %36, align 8, !tbaa !32
  %38 = zext i32 %37 to i64
  %39 = getelementptr inbounds nuw i32, ptr %34, i64 %38
  %40 = load i32, ptr %39, align 4, !tbaa !10
  br label %41

41:                                               ; preds = %31, %27
  %42 = phi i32 [ %30, %27 ], [ %40, %31 ]
  %43 = call ptr @cuddLevelQueueEnqueue(ptr noundef %21, ptr noundef %22, i32 noundef %42)
  store ptr %43, ptr %13, align 8, !tbaa !93
  %44 = load ptr, ptr %13, align 8, !tbaa !93
  %45 = icmp eq ptr %44, null
  br i1 %45, label %46, label %47

46:                                               ; preds = %41
  store i32 0, ptr %6, align 4
  store i32 1, ptr %16, align 4
  br label %258

47:                                               ; preds = %41
  %48 = load ptr, ptr %10, align 8, !tbaa !33
  %49 = getelementptr inbounds nuw %struct.ApproxInfo, ptr %48, i32 0, i32 3
  %50 = load ptr, ptr %49, align 8, !tbaa !40
  %51 = load ptr, ptr %14, align 8, !tbaa !8
  %52 = call i32 @st__lookup(ptr noundef %50, ptr noundef %51, ptr noundef %12)
  %53 = load ptr, ptr %12, align 8, !tbaa !57
  %54 = getelementptr inbounds nuw %struct.NodeData, ptr %53, i32 0, i32 2
  store i32 0, ptr %54, align 8, !tbaa !60
  %55 = load ptr, ptr %9, align 8, !tbaa !8
  %56 = icmp ne ptr %55, null
  br i1 %56, label %57, label %71

57:                                               ; preds = %47
  %58 = load ptr, ptr %9, align 8, !tbaa !8
  %59 = ptrtoint ptr %58 to i64
  %60 = and i64 %59, -2
  %61 = inttoptr i64 %60 to ptr
  store ptr %61, ptr %9, align 8, !tbaa !8
  %62 = load ptr, ptr %10, align 8, !tbaa !33
  %63 = getelementptr inbounds nuw %struct.ApproxInfo, ptr %62, i32 0, i32 3
  %64 = load ptr, ptr %63, align 8, !tbaa !40
  %65 = load ptr, ptr %9, align 8, !tbaa !8
  %66 = call i32 @st__lookup(ptr noundef %64, ptr noundef %65, ptr noundef %12)
  %67 = load ptr, ptr %12, align 8, !tbaa !57
  %68 = getelementptr inbounds nuw %struct.NodeData, ptr %67, i32 0, i32 2
  %69 = load i32, ptr %68, align 8, !tbaa !60
  %70 = add nsw i32 %69, 1
  store i32 %70, ptr %68, align 8, !tbaa !60
  br label %71

71:                                               ; preds = %57, %47
  br label %72

72:                                               ; preds = %255, %114, %71
  %73 = load ptr, ptr %11, align 8, !tbaa !62
  %74 = getelementptr inbounds nuw %struct.DdLevelQueue, ptr %73, i32 0, i32 0
  %75 = load ptr, ptr %74, align 8, !tbaa !71
  %76 = icmp ne ptr %75, null
  br i1 %76, label %77, label %256

77:                                               ; preds = %72
  %78 = load ptr, ptr %11, align 8, !tbaa !62
  %79 = getelementptr inbounds nuw %struct.DdLevelQueue, ptr %78, i32 0, i32 0
  %80 = load ptr, ptr %79, align 8, !tbaa !71
  store ptr %80, ptr %13, align 8, !tbaa !93
  %81 = load ptr, ptr %13, align 8, !tbaa !93
  %82 = getelementptr inbounds nuw %struct.LocalQueueItem, ptr %81, i32 0, i32 2
  %83 = load ptr, ptr %82, align 8, !tbaa !97
  store ptr %83, ptr %14, align 8, !tbaa !8
  %84 = load ptr, ptr %11, align 8, !tbaa !62
  %85 = load ptr, ptr %14, align 8, !tbaa !8
  %86 = getelementptr inbounds nuw %struct.DdNode, ptr %85, i32 0, i32 0
  %87 = load i32, ptr %86, align 8, !tbaa !32
  %88 = icmp eq i32 %87, 2147483647
  br i1 %88, label %89, label %93

89:                                               ; preds = %77
  %90 = load ptr, ptr %14, align 8, !tbaa !8
  %91 = getelementptr inbounds nuw %struct.DdNode, ptr %90, i32 0, i32 0
  %92 = load i32, ptr %91, align 8, !tbaa !32
  br label %103

93:                                               ; preds = %77
  %94 = load ptr, ptr %7, align 8, !tbaa !3
  %95 = getelementptr inbounds nuw %struct.DdManager, ptr %94, i32 0, i32 37
  %96 = load ptr, ptr %95, align 8, !tbaa !65
  %97 = load ptr, ptr %14, align 8, !tbaa !8
  %98 = getelementptr inbounds nuw %struct.DdNode, ptr %97, i32 0, i32 0
  %99 = load i32, ptr %98, align 8, !tbaa !32
  %100 = zext i32 %99 to i64
  %101 = getelementptr inbounds nuw i32, ptr %96, i64 %100
  %102 = load i32, ptr %101, align 4, !tbaa !10
  br label %103

103:                                              ; preds = %93, %89
  %104 = phi i32 [ %92, %89 ], [ %102, %93 ]
  call void @cuddLevelQueueDequeue(ptr noundef %84, i32 noundef %104)
  %105 = load ptr, ptr %10, align 8, !tbaa !33
  %106 = getelementptr inbounds nuw %struct.ApproxInfo, ptr %105, i32 0, i32 3
  %107 = load ptr, ptr %106, align 8, !tbaa !40
  %108 = load ptr, ptr %14, align 8, !tbaa !8
  %109 = call i32 @st__lookup(ptr noundef %107, ptr noundef %108, ptr noundef %12)
  %110 = load ptr, ptr %12, align 8, !tbaa !57
  %111 = getelementptr inbounds nuw %struct.NodeData, ptr %110, i32 0, i32 2
  %112 = load i32, ptr %111, align 8, !tbaa !60
  %113 = icmp ne i32 %112, 0
  br i1 %113, label %114, label %115

114:                                              ; preds = %103
  br label %72, !llvm.loop !99

115:                                              ; preds = %103
  %116 = load i32, ptr %15, align 4, !tbaa !10
  %117 = add nsw i32 %116, 1
  store i32 %117, ptr %15, align 4, !tbaa !10
  %118 = load ptr, ptr %14, align 8, !tbaa !8
  %119 = getelementptr inbounds nuw %struct.DdNode, ptr %118, i32 0, i32 3
  %120 = getelementptr inbounds nuw %struct.DdChildren, ptr %119, i32 0, i32 0
  %121 = load ptr, ptr %120, align 8, !tbaa !79
  %122 = getelementptr inbounds nuw %struct.DdNode, ptr %121, i32 0, i32 0
  %123 = load i32, ptr %122, align 8, !tbaa !32
  %124 = icmp eq i32 %123, 2147483647
  br i1 %124, label %177, label %125

125:                                              ; preds = %115
  %126 = load ptr, ptr %11, align 8, !tbaa !62
  %127 = load ptr, ptr %14, align 8, !tbaa !8
  %128 = getelementptr inbounds nuw %struct.DdNode, ptr %127, i32 0, i32 3
  %129 = getelementptr inbounds nuw %struct.DdChildren, ptr %128, i32 0, i32 0
  %130 = load ptr, ptr %129, align 8, !tbaa !79
  %131 = load ptr, ptr %14, align 8, !tbaa !8
  %132 = getelementptr inbounds nuw %struct.DdNode, ptr %131, i32 0, i32 3
  %133 = getelementptr inbounds nuw %struct.DdChildren, ptr %132, i32 0, i32 0
  %134 = load ptr, ptr %133, align 8, !tbaa !79
  %135 = getelementptr inbounds nuw %struct.DdNode, ptr %134, i32 0, i32 0
  %136 = load i32, ptr %135, align 8, !tbaa !32
  %137 = icmp eq i32 %136, 2147483647
  br i1 %137, label %138, label %145

138:                                              ; preds = %125
  %139 = load ptr, ptr %14, align 8, !tbaa !8
  %140 = getelementptr inbounds nuw %struct.DdNode, ptr %139, i32 0, i32 3
  %141 = getelementptr inbounds nuw %struct.DdChildren, ptr %140, i32 0, i32 0
  %142 = load ptr, ptr %141, align 8, !tbaa !79
  %143 = getelementptr inbounds nuw %struct.DdNode, ptr %142, i32 0, i32 0
  %144 = load i32, ptr %143, align 8, !tbaa !32
  br label %158

145:                                              ; preds = %125
  %146 = load ptr, ptr %7, align 8, !tbaa !3
  %147 = getelementptr inbounds nuw %struct.DdManager, ptr %146, i32 0, i32 37
  %148 = load ptr, ptr %147, align 8, !tbaa !65
  %149 = load ptr, ptr %14, align 8, !tbaa !8
  %150 = getelementptr inbounds nuw %struct.DdNode, ptr %149, i32 0, i32 3
  %151 = getelementptr inbounds nuw %struct.DdChildren, ptr %150, i32 0, i32 0
  %152 = load ptr, ptr %151, align 8, !tbaa !79
  %153 = getelementptr inbounds nuw %struct.DdNode, ptr %152, i32 0, i32 0
  %154 = load i32, ptr %153, align 8, !tbaa !32
  %155 = zext i32 %154 to i64
  %156 = getelementptr inbounds nuw i32, ptr %148, i64 %155
  %157 = load i32, ptr %156, align 4, !tbaa !10
  br label %158

158:                                              ; preds = %145, %138
  %159 = phi i32 [ %144, %138 ], [ %157, %145 ]
  %160 = call ptr @cuddLevelQueueEnqueue(ptr noundef %126, ptr noundef %130, i32 noundef %159)
  store ptr %160, ptr %13, align 8, !tbaa !93
  %161 = load ptr, ptr %13, align 8, !tbaa !93
  %162 = icmp eq ptr %161, null
  br i1 %162, label %163, label %164

163:                                              ; preds = %158
  store i32 0, ptr %6, align 4
  store i32 1, ptr %16, align 4
  br label %258

164:                                              ; preds = %158
  %165 = load ptr, ptr %10, align 8, !tbaa !33
  %166 = getelementptr inbounds nuw %struct.ApproxInfo, ptr %165, i32 0, i32 3
  %167 = load ptr, ptr %166, align 8, !tbaa !40
  %168 = load ptr, ptr %14, align 8, !tbaa !8
  %169 = getelementptr inbounds nuw %struct.DdNode, ptr %168, i32 0, i32 3
  %170 = getelementptr inbounds nuw %struct.DdChildren, ptr %169, i32 0, i32 0
  %171 = load ptr, ptr %170, align 8, !tbaa !79
  %172 = call i32 @st__lookup(ptr noundef %167, ptr noundef %171, ptr noundef %12)
  %173 = load ptr, ptr %12, align 8, !tbaa !57
  %174 = getelementptr inbounds nuw %struct.NodeData, ptr %173, i32 0, i32 2
  %175 = load i32, ptr %174, align 8, !tbaa !60
  %176 = add nsw i32 %175, -1
  store i32 %176, ptr %174, align 8, !tbaa !60
  br label %177

177:                                              ; preds = %164, %115
  %178 = load ptr, ptr %14, align 8, !tbaa !8
  %179 = getelementptr inbounds nuw %struct.DdNode, ptr %178, i32 0, i32 3
  %180 = getelementptr inbounds nuw %struct.DdChildren, ptr %179, i32 0, i32 1
  %181 = load ptr, ptr %180, align 8, !tbaa !79
  %182 = ptrtoint ptr %181 to i64
  %183 = and i64 %182, -2
  %184 = inttoptr i64 %183 to ptr
  %185 = getelementptr inbounds nuw %struct.DdNode, ptr %184, i32 0, i32 0
  %186 = load i32, ptr %185, align 8, !tbaa !32
  %187 = icmp eq i32 %186, 2147483647
  br i1 %187, label %255, label %188

188:                                              ; preds = %177
  %189 = load ptr, ptr %11, align 8, !tbaa !62
  %190 = load ptr, ptr %14, align 8, !tbaa !8
  %191 = getelementptr inbounds nuw %struct.DdNode, ptr %190, i32 0, i32 3
  %192 = getelementptr inbounds nuw %struct.DdChildren, ptr %191, i32 0, i32 1
  %193 = load ptr, ptr %192, align 8, !tbaa !79
  %194 = ptrtoint ptr %193 to i64
  %195 = and i64 %194, -2
  %196 = inttoptr i64 %195 to ptr
  %197 = load ptr, ptr %14, align 8, !tbaa !8
  %198 = getelementptr inbounds nuw %struct.DdNode, ptr %197, i32 0, i32 3
  %199 = getelementptr inbounds nuw %struct.DdChildren, ptr %198, i32 0, i32 1
  %200 = load ptr, ptr %199, align 8, !tbaa !79
  %201 = ptrtoint ptr %200 to i64
  %202 = and i64 %201, -2
  %203 = inttoptr i64 %202 to ptr
  %204 = getelementptr inbounds nuw %struct.DdNode, ptr %203, i32 0, i32 0
  %205 = load i32, ptr %204, align 8, !tbaa !32
  %206 = icmp eq i32 %205, 2147483647
  br i1 %206, label %207, label %217

207:                                              ; preds = %188
  %208 = load ptr, ptr %14, align 8, !tbaa !8
  %209 = getelementptr inbounds nuw %struct.DdNode, ptr %208, i32 0, i32 3
  %210 = getelementptr inbounds nuw %struct.DdChildren, ptr %209, i32 0, i32 1
  %211 = load ptr, ptr %210, align 8, !tbaa !79
  %212 = ptrtoint ptr %211 to i64
  %213 = and i64 %212, -2
  %214 = inttoptr i64 %213 to ptr
  %215 = getelementptr inbounds nuw %struct.DdNode, ptr %214, i32 0, i32 0
  %216 = load i32, ptr %215, align 8, !tbaa !32
  br label %233

217:                                              ; preds = %188
  %218 = load ptr, ptr %7, align 8, !tbaa !3
  %219 = getelementptr inbounds nuw %struct.DdManager, ptr %218, i32 0, i32 37
  %220 = load ptr, ptr %219, align 8, !tbaa !65
  %221 = load ptr, ptr %14, align 8, !tbaa !8
  %222 = getelementptr inbounds nuw %struct.DdNode, ptr %221, i32 0, i32 3
  %223 = getelementptr inbounds nuw %struct.DdChildren, ptr %222, i32 0, i32 1
  %224 = load ptr, ptr %223, align 8, !tbaa !79
  %225 = ptrtoint ptr %224 to i64
  %226 = and i64 %225, -2
  %227 = inttoptr i64 %226 to ptr
  %228 = getelementptr inbounds nuw %struct.DdNode, ptr %227, i32 0, i32 0
  %229 = load i32, ptr %228, align 8, !tbaa !32
  %230 = zext i32 %229 to i64
  %231 = getelementptr inbounds nuw i32, ptr %220, i64 %230
  %232 = load i32, ptr %231, align 4, !tbaa !10
  br label %233

233:                                              ; preds = %217, %207
  %234 = phi i32 [ %216, %207 ], [ %232, %217 ]
  %235 = call ptr @cuddLevelQueueEnqueue(ptr noundef %189, ptr noundef %196, i32 noundef %234)
  store ptr %235, ptr %13, align 8, !tbaa !93
  %236 = load ptr, ptr %13, align 8, !tbaa !93
  %237 = icmp eq ptr %236, null
  br i1 %237, label %238, label %239

238:                                              ; preds = %233
  store i32 0, ptr %6, align 4
  store i32 1, ptr %16, align 4
  br label %258

239:                                              ; preds = %233
  %240 = load ptr, ptr %10, align 8, !tbaa !33
  %241 = getelementptr inbounds nuw %struct.ApproxInfo, ptr %240, i32 0, i32 3
  %242 = load ptr, ptr %241, align 8, !tbaa !40
  %243 = load ptr, ptr %14, align 8, !tbaa !8
  %244 = getelementptr inbounds nuw %struct.DdNode, ptr %243, i32 0, i32 3
  %245 = getelementptr inbounds nuw %struct.DdChildren, ptr %244, i32 0, i32 1
  %246 = load ptr, ptr %245, align 8, !tbaa !79
  %247 = ptrtoint ptr %246 to i64
  %248 = and i64 %247, -2
  %249 = inttoptr i64 %248 to ptr
  %250 = call i32 @st__lookup(ptr noundef %242, ptr noundef %249, ptr noundef %12)
  %251 = load ptr, ptr %12, align 8, !tbaa !57
  %252 = getelementptr inbounds nuw %struct.NodeData, ptr %251, i32 0, i32 2
  %253 = load i32, ptr %252, align 8, !tbaa !60
  %254 = add nsw i32 %253, -1
  store i32 %254, ptr %252, align 8, !tbaa !60
  br label %255

255:                                              ; preds = %239, %177
  br label %72, !llvm.loop !99

256:                                              ; preds = %72
  %257 = load i32, ptr %15, align 4, !tbaa !10
  store i32 %257, ptr %6, align 4
  store i32 1, ptr %16, align 4
  br label %258

258:                                              ; preds = %256, %238, %163, %46
  call void @llvm.lifetime.end.p0(i64 4, ptr %15) #7
  call void @llvm.lifetime.end.p0(i64 8, ptr %14) #7
  call void @llvm.lifetime.end.p0(i64 8, ptr %13) #7
  call void @llvm.lifetime.end.p0(i64 8, ptr %12) #7
  %259 = load i32, ptr %6, align 4
  ret i32 %259
}