; Function Attrs: nounwind uwtable
define internal fastcc void @updateRefs(ptr noundef readonly captures(none) %0, ptr noundef %1, ptr noundef %2, ptr noundef nonnull readonly captures(none) %3, ptr noundef nonnull %4) unnamed_addr #0 {
  %6 = alloca ptr, align 8
  call void @llvm.lifetime.start.p0(i64 8, ptr nonnull %6) #10
  %7 = ptrtoint ptr %1 to i64
  %8 = and i64 %7, -2
  %9 = inttoptr i64 %8 to ptr
  %10 = load i32, ptr %9, align 8, !tbaa !27
  %11 = icmp eq i32 %10, 2147483647
  br i1 %11, label %18, label %12

12:                                               ; preds = %5
  %13 = getelementptr inbounds nuw i8, ptr %0, i64 312
  %14 = load ptr, ptr %13, align 8, !tbaa !35
  %15 = zext i32 %10 to i64
  %16 = getelementptr inbounds nuw i32, ptr %14, i64 %15
  %17 = load i32, ptr %16, align 4, !tbaa !36
  br label %18

18:                                               ; preds = %5, %12
  %19 = phi i32 [ %17, %12 ], [ 2147483647, %5 ]
  %20 = tail call ptr @cuddLevelQueueEnqueue(ptr noundef nonnull %4, ptr noundef nonnull %9, i32 noundef %19) #10
  %21 = icmp eq ptr %20, null
  br i1 %21, label %.loopexit, label %22

22:                                               ; preds = %18
  %23 = getelementptr inbounds nuw i8, ptr %3, i64 24
  %24 = load ptr, ptr %23, align 8, !tbaa !46
  %25 = call i32 @st__lookup(ptr noundef %24, ptr noundef nonnull %9, ptr noundef nonnull %6) #10
  %26 = load ptr, ptr %6, align 8, !tbaa !47
  %27 = getelementptr inbounds nuw i8, ptr %26, i64 16
  store i32 0, ptr %27, align 8, !tbaa !61
  %.not = icmp eq ptr %2, null
  br i1 %.not, label %38, label %28

28:                                               ; preds = %22
  %29 = ptrtoint ptr %2 to i64
  %30 = and i64 %29, -2
  %31 = inttoptr i64 %30 to ptr
  %32 = load ptr, ptr %23, align 8, !tbaa !46
  %33 = call i32 @st__lookup(ptr noundef %32, ptr noundef %31, ptr noundef nonnull %6) #10
  %34 = load ptr, ptr %6, align 8, !tbaa !47
  %35 = getelementptr inbounds nuw i8, ptr %34, i64 16
  %36 = load i32, ptr %35, align 8, !tbaa !61
  %37 = add nsw i32 %36, 1
  store i32 %37, ptr %35, align 8, !tbaa !61
  br label %38

38:                                               ; preds = %28, %22
  %39 = getelementptr inbounds nuw i8, ptr %0, i64 312
  br label %.outer

.outer:                                           ; preds = %.outer.backedge, %38
  %40 = load ptr, ptr %4, align 8, !tbaa !41
  %.not54 = icmp eq ptr %40, null
  br i1 %.not54, label %.loopexit, label %41

41:                                               ; preds = %.outer
  %42 = getelementptr inbounds nuw i8, ptr %40, i64 16
  %43 = load ptr, ptr %42, align 8, !tbaa !86
  %44 = load i32, ptr %43, align 8, !tbaa !27
  %45 = icmp eq i32 %44, 2147483647
  br i1 %45, label %51, label %46

46:                                               ; preds = %41
  %47 = load ptr, ptr %39, align 8, !tbaa !35
  %48 = zext i32 %44 to i64
  %49 = getelementptr inbounds nuw i32, ptr %47, i64 %48
  %50 = load i32, ptr %49, align 4, !tbaa !36
  br label %51

51:                                               ; preds = %41, %46
  %52 = phi i32 [ %50, %46 ], [ 2147483647, %41 ]
  call void @cuddLevelQueueDequeue(ptr noundef nonnull %4, i32 noundef %52) #10
  %53 = load ptr, ptr %23, align 8, !tbaa !46
  %54 = call i32 @st__lookup(ptr noundef %53, ptr noundef nonnull %43, ptr noundef nonnull %6) #10
  %55 = load ptr, ptr %6, align 8, !tbaa !47
  %56 = getelementptr inbounds nuw i8, ptr %55, i64 16
  %57 = load i32, ptr %56, align 8, !tbaa !61
  %.not55 = icmp eq i32 %57, 0
  br i1 %.not55, label %58, label %.outer.backedge

.outer.backedge:                                  ; preds = %51, %93, %78
  br label %.outer, !llvm.loop !88

58:                                               ; preds = %51
  %59 = getelementptr inbounds nuw i8, ptr %43, i64 16
  %60 = load ptr, ptr %59, align 8, !tbaa !56
  %61 = load i32, ptr %60, align 8, !tbaa !27
  %62 = icmp eq i32 %61, 2147483647
  br i1 %62, label %78, label %63

63:                                               ; preds = %58
  %64 = load ptr, ptr %39, align 8, !tbaa !35
  %65 = zext i32 %61 to i64
  %66 = getelementptr inbounds nuw i32, ptr %64, i64 %65
  %67 = load i32, ptr %66, align 4, !tbaa !36
  %68 = call ptr @cuddLevelQueueEnqueue(ptr noundef nonnull %4, ptr noundef nonnull %60, i32 noundef %67) #10
  %69 = icmp eq ptr %68, null
  br i1 %69, label %.loopexit, label %70

70:                                               ; preds = %63
  %71 = load ptr, ptr %23, align 8, !tbaa !46
  %72 = load ptr, ptr %59, align 8, !tbaa !56
  %73 = call i32 @st__lookup(ptr noundef %71, ptr noundef %72, ptr noundef nonnull %6) #10
  %74 = load ptr, ptr %6, align 8, !tbaa !47
  %75 = getelementptr inbounds nuw i8, ptr %74, i64 16
  %76 = load i32, ptr %75, align 8, !tbaa !61
  %77 = add nsw i32 %76, -1
  store i32 %77, ptr %75, align 8, !tbaa !61
  br label %78

78:                                               ; preds = %70, %58
  %79 = getelementptr inbounds nuw i8, ptr %43, i64 24
  %80 = load ptr, ptr %79, align 8, !tbaa !56
  %81 = ptrtoint ptr %80 to i64
  %82 = and i64 %81, -2
  %83 = inttoptr i64 %82 to ptr
  %84 = load i32, ptr %83, align 8, !tbaa !27
  %85 = icmp eq i32 %84, 2147483647
  br i1 %85, label %.outer.backedge, label %86

86:                                               ; preds = %78
  %87 = load ptr, ptr %39, align 8, !tbaa !35
  %88 = zext i32 %84 to i64
  %89 = getelementptr inbounds nuw i32, ptr %87, i64 %88
  %90 = load i32, ptr %89, align 4, !tbaa !36
  %91 = call ptr @cuddLevelQueueEnqueue(ptr noundef nonnull %4, ptr noundef nonnull %83, i32 noundef %90) #10
  %92 = icmp eq ptr %91, null
  br i1 %92, label %.loopexit, label %93

93:                                               ; preds = %86
  %94 = load ptr, ptr %23, align 8, !tbaa !46
  %95 = load ptr, ptr %79, align 8, !tbaa !56
  %96 = ptrtoint ptr %95 to i64
  %97 = and i64 %96, -2
  %98 = inttoptr i64 %97 to ptr
  %99 = call i32 @st__lookup(ptr noundef %94, ptr noundef %98, ptr noundef nonnull %6) #10
  %100 = load ptr, ptr %6, align 8, !tbaa !47
  %101 = getelementptr inbounds nuw i8, ptr %100, i64 16
  %102 = load i32, ptr %101, align 8, !tbaa !61
  %103 = add nsw i32 %102, -1
  store i32 %103, ptr %101, align 8, !tbaa !61
  br label %.outer.backedge

.loopexit:                                        ; preds = %86, %63, %.outer, %18
  call void @llvm.lifetime.end.p0(i64 8, ptr nonnull %6) #10
  ret void
}